MPASM 5.86                          MAIN.ASM   12-27-2020  22:02:26         PAGE  1


LOC  OBJECT CODE     LINE SOURCE TEXT
  VALUE

                      00001 #include "p16F84A.inc"
                      00001         LIST
                      00002 
                      00003 ;==========================================================================
                      00004 ; Build date : Oct 24 2019
                      00005 ;  MPASM PIC16F84A processor include
                      00006 ; 
                      00007 ;  (c) Copyright 1999-2019 Microchip Technology, All rights reserved
                      00008 ;==========================================================================
                      00009 
                      00209         LIST
Warning[205]: Found directive in column 1. (__CONFIG)
2007   3FF9           00002 __CONFIG _FOSC_XT & _WDTE_OFF & _PWRTE_OFF & _CP_OFF
Warning[205]: Found directive in column 1. (ORG)
                      00003 ORG 0x00
                      00004     
                      00005     CBLOCK 0x20
  00000020            00006         d1
  00000021            00007         d2
                      00008     ENDC
                      00009     
Warning[207]: Found label after column 1. (SET_SETTINGS)
0000                  00010     SET_SETTINGS
0000   1683           00011         BSF STATUS, RP0 
0001   301F           00012         MOVLW b'11111'
0002   0085           00013         MOVWF PORTA
0003   3000           00014         MOVLW b'00000000'
0004   0086           00015         MOVWF PORTB
0005   1283           00016         BCF STATUS, RP0
0006   0186           00017         CLRF PORTB
0007   0185           00018         CLRF PORTA
                      00019         
Warning[207]: Found label after column 1. (START)
0008                  00020     START
0008   1805           00021         BTFSC PORTA, 0
0009   2???           00022             GOTO FIRST_ANIMATION
000A   1885           00023         BTFSC PORTA, 1
000B   2???           00024             GOTO SECOND_ANIMATION
                      00025         ;BTFSC PORTA, 2
                      00026             ;GOTO FIRST_ANIMATION
                      00027         ;BTFSC PORTA, 3
                      00028             ;GOTO FIRST_ANIMATION
000C   2???           00029         GOTO START
                      00030             
Warning[207]: Found label after column 1. (FIRST_ANIMATION)
000D                  00031     FIRST_ANIMATION
000D   2???           00032         CALL DELAY_2
000E   30FF           00033         MOVLW b'11111111'
000F   0086           00034         MOVWF PORTB
0010   2???           00035         CALL DELAY_2
0011   0186           00036         CLRF PORTB
0012   2???           00037         GOTO START
                      00038         
MPASM 5.86                          MAIN.ASM   12-27-2020  22:02:26         PAGE  2


LOC  OBJECT CODE     LINE SOURCE TEXT
  VALUE

Warning[207]: Found label after column 1. (SECOND_ANIMATION)
0013                  00039     SECOND_ANIMATION
0013   3080           00040         MOVLW b'10000000'
0014   0086           00041         MOVWF PORTB
0015   2???           00042         GOTO BUCLE_INC_SECOND_ANIMATION
                      00043     
Warning[207]: Found label after column 1. (BUCLE_INC_SECOND_ANIMATION)
0016                  00044     BUCLE_INC_SECOND_ANIMATION
0016   1806           00045         BTFSC PORTB, 0
0017   2???           00046             GOTO BUCLE_DEC_SECOND_ANIMATION
0018   0C86           00047         RRF PORTB, 1
0019   2???           00048         CALL DELAY_3
001A   2???           00049         GOTO BUCLE_INC_SECOND_ANIMATION
                      00050         
Warning[207]: Found label after column 1. (BUCLE_DEC_SECOND_ANIMATION)
001B                  00051     BUCLE_DEC_SECOND_ANIMATION
001B   1B86           00052         BTFSC PORTB, 7
001C   2???           00053             GOTO START
001D   0D86           00054         RLF PORTB, 1
001E   2???           00055         CALL DELAY_3
001F   2???           00056         GOTO BUCLE_DEC_SECOND_ANIMATION
                      00057         
                      00058     ; -------------------------------------------------------------------------
                      00059         
Warning[207]: Found label after column 1. (DELAY_1)
0020                  00060     DELAY_1 ; 0.2 seconds
0020   303F           00061         MOVLW   0x3F
0021   00A0           00062         MOVWF   d1
0022   309D           00063         MOVLW   0x9D
0023   00A1           00064         MOVWF   d2
0024   2???           00065         CALL DELAY
0025   0008           00066         RETURN
                      00067         
Warning[207]: Found label after column 1. (DELAY_2)
0026                  00068     DELAY_2 ; 0.1 seconds
0026   301F           00069         MOVLW   0x1F
0027   00A0           00070         MOVWF   d1
0028   304F           00071         MOVLW   0x4F
0029   00A1           00072         MOVWF   d2
002A   2???           00073         CALL DELAY
002B   0008           00074         RETURN
                      00075         
Warning[207]: Found label after column 1. (DELAY_3)
002C                  00076     DELAY_3 ; 0.01 seconds
002C   30CF           00077         MOVLW   0xCF
002D   00A0           00078         MOVWF   d1
002E   3008           00079         MOVLW   0x08
002F   00A1           00080         MOVWF   d2
0030   2???           00081         CALL DELAY
0031   0008           00082         RETURN
                      00083     
Warning[207]: Found label after column 1. (DELAY)
0032                  00084     DELAY
MPASM 5.86                          MAIN.ASM   12-27-2020  22:02:26         PAGE  3


LOC  OBJECT CODE     LINE SOURCE TEXT
  VALUE

0032   0BA0           00085         DECFSZ  d1, F
0033   2???           00086         GOTO    $+2
0034   0BA1           00087         DECFSZ  d2, F
0035   2???           00088         GOTO    DELAY
0036   0008           00089         RETURN
                      00090 
3FF9                  00091     END
MPASM 5.86                          MAIN.ASM   12-27-2020  22:02:26         PAGE  4


SYMBOL TABLE
  LABEL                             VALUE 

BUCLE_DEC_SECOND_ANIMATION        0000001B
BUCLE_INC_SECOND_ANIMATION        00000016
C                                 00000000
DC                                00000001
DELAY                             00000032
DELAY_1                           00000020
DELAY_2                           00000026
DELAY_3                           0000002C
EEADR                             00000009
EECON1                            00000088
EECON2                            00000089
EEDATA                            00000008
EEIE                              00000006
EEIF                              00000004
F                                 00000001
FIRST_ANIMATION                   0000000D
FSR                               00000004
GIE                               00000007
INDF                              00000000
INTCON                            0000000B
INTE                              00000004
INTEDG                            00000006
INTF                              00000001
IRP                               00000007
NOT_PD                            00000003
NOT_RBPU                          00000007
NOT_TO                            00000004
OPTION_REG                        00000081
PCL                               00000002
PCLATH                            0000000A
PORTA                             00000005
PORTB                             00000006
PS0                               00000000
PS1                               00000001
PS2                               00000002
PSA                               00000003
RA0                               00000000
RA1                               00000001
RA2                               00000002
RA3                               00000003
RA4                               00000004
RB0                               00000000
RB1                               00000001
RB2                               00000002
RB3                               00000003
RB4                               00000004
RB5                               00000005
RB6                               00000006
RB7                               00000007
RBIE                              00000003
RBIF                              00000000
RD                                00000000
RP0                               00000005
MPASM 5.86                          MAIN.ASM   12-27-2020  22:02:26         PAGE  5


SYMBOL TABLE
  LABEL                             VALUE 

RP1                               00000006
SECOND_ANIMATION                  00000013
SET_SETTINGS                      00000000
START                             00000008
STATUS                            00000003
T0CS                              00000005
T0IE                              00000005
T0IF                              00000002
T0SE                              00000004
TMR0                              00000001
TMR0IE                            00000005
TMR0IF                            00000002
TRISA                             00000085
TRISA0                            00000000
TRISA1                            00000001
TRISA2                            00000002
TRISA3                            00000003
TRISA4                            00000004
TRISB                             00000086
TRISB0                            00000000
TRISB1                            00000001
TRISB2                            00000002
TRISB3                            00000003
TRISB4                            00000004
TRISB5                            00000005
TRISB6                            00000006
TRISB7                            00000007
W                                 00000000
WR                                00000001
WREN                              00000002
WRERR                             00000003
Z                                 00000002
_.org_0_0033                      00000033
_CONFIG                           00002007
_CP_OFF                           00003FFF
_CP_ON                            0000000F
_DEVID1                           00002006
_FOSC_EXTRC                       00003FFF
_FOSC_HS                          00003FFE
_FOSC_LP                          00003FFC
_FOSC_XT                          00003FFD
_HS_OSC                           00003FFE
_IDLOC0                           00002000
_IDLOC1                           00002001
_IDLOC2                           00002002
_IDLOC3                           00002003
_LP_OSC                           00003FFC
_PWRTE_OFF                        00003FFF
_PWRTE_ON                         00003FF7
_RC_OSC                           00003FFF
_WDTE_OFF                         00003FFB
_WDTE_ON                          00003FFF
_WDT_OFF                          00003FFB
MPASM 5.86                          MAIN.ASM   12-27-2020  22:02:26         PAGE  6


SYMBOL TABLE
  LABEL                             VALUE 

_WDT_ON                           00003FFF
_XT_OSC                           00003FFD
__16F84A                          00000001
d1                                00000020
d2                                00000021

Errors   :     0
Warnings :    12 reported,     0 suppressed
Messages :     0 reported,     0 suppressed

